; Function Attrs: mustprogress uwtable
define hidden noundef zeroext i1 @_ZN4cvc58internal6theory11quantifiers5ieval13InstEvaluator4pushENS0_12NodeTemplateILb0EEES6_RSt6vectorINS5_ILb1EEESaIS8_EE(ptr noundef nonnull align 8 dereferenceable(1040) %this, ptr nocapture noundef readonly %v, ptr nocapture noundef readonly %s, ptr noundef nonnull align 8 dereferenceable(24) %assignedQuants) local_unnamed_addr #3 align 2 personality ptr @__gxx_personality_v0 {
entry:
  %agg.tmp = alloca %"class.cvc5::internal::NodeTemplate.429", align 8
  %agg.tmp2 = alloca %"class.cvc5::internal::NodeTemplate.429", align 8
  %0 = load ptr, ptr %v, align 8
  store ptr %0, ptr %agg.tmp, align 8
  %1 = load ptr, ptr %s, align 8
  store ptr %1, ptr %agg.tmp2, align 8
  %call = call noundef zeroext i1 @_ZN4cvc58internal6theory11quantifiers5ieval13InstEvaluator12pushInternalENS0_12NodeTemplateILb0EEES6_RSt6vectorINS5_ILb1EEESaIS8_EE(ptr noundef nonnull align 8 dereferenceable(1040) %this, ptr noundef nonnull %agg.tmp, ptr noundef nonnull %agg.tmp2, ptr noundef nonnull align 8 dereferenceable(24) %assignedQuants)
  ret i1 %call
}